target datalayout = "e-m:e-p270:32:32-p271:32:32-p272:64:64-i64:64-i128:128-f80:128-n8:16:32:64-S128"
target triple = "x86_64-pc-linux-gnu"

%struct.FxuListLit = type { ptr, ptr, i32 }
%struct.FxuCube = type { i32, ptr, ptr, %struct.FxuListLit, ptr, ptr, ptr }
%struct.FxuLit = type { i32, i32, ptr, ptr, ptr, ptr, ptr, ptr }

; Function Attrs: nounwind uwtable
define void @Fxu_ListCubeAddLiteral(ptr noundef %0, ptr noundef %1) #0 {
  %3 = alloca ptr, align 8
  %4 = alloca ptr, align 8
  %5 = alloca ptr, align 8
  store ptr %0, ptr %3, align 8, !tbaa !24
  store ptr %1, ptr %4, align 8, !tbaa !69
  call void @llvm.lifetime.start.p0(i64 8, ptr %5) #3
  %6 = load ptr, ptr %3, align 8, !tbaa !24
  %7 = getelementptr inbounds nuw %struct.FxuCube, ptr %6, i32 0, i32 3
  store ptr %7, ptr %5, align 8, !tbaa !70
  %8 = load ptr, ptr %5, align 8, !tbaa !70
  %9 = getelementptr inbounds nuw %struct.FxuListLit, ptr %8, i32 0, i32 0
  %10 = load ptr, ptr %9, align 8, !tbaa !72
  %11 = icmp eq ptr %10, null
  br i1 %11, label %12, label %23

12:                                               ; preds = %2
  %13 = load ptr, ptr %4, align 8, !tbaa !69
  %14 = load ptr, ptr %5, align 8, !tbaa !70
  %15 = getelementptr inbounds nuw %struct.FxuListLit, ptr %14, i32 0, i32 0
  store ptr %13, ptr %15, align 8, !tbaa !72
  %16 = load ptr, ptr %4, align 8, !tbaa !69
  %17 = load ptr, ptr %5, align 8, !tbaa !70
  %18 = getelementptr inbounds nuw %struct.FxuListLit, ptr %17, i32 0, i32 1
  store ptr %16, ptr %18, align 8, !tbaa !73
  %19 = load ptr, ptr %4, align 8, !tbaa !69
  %20 = getelementptr inbounds nuw %struct.FxuLit, ptr %19, i32 0, i32 4
  store ptr null, ptr %20, align 8, !tbaa !74
  %21 = load ptr, ptr %4, align 8, !tbaa !69
  %22 = getelementptr inbounds nuw %struct.FxuLit, ptr %21, i32 0, i32 5
  store ptr null, ptr %22, align 8, !tbaa !76
  br label %39

23:                                               ; preds = %2
  %24 = load ptr, ptr %4, align 8, !tbaa !69
  %25 = getelementptr inbounds nuw %struct.FxuLit, ptr %24, i32 0, i32 5
  store ptr null, ptr %25, align 8, !tbaa !76
  %26 = load ptr, ptr %4, align 8, !tbaa !69
  %27 = load ptr, ptr %5, align 8, !tbaa !70
  %28 = getelementptr inbounds nuw %struct.FxuListLit, ptr %27, i32 0, i32 1
  %29 = load ptr, ptr %28, align 8, !tbaa !73
  %30 = getelementptr inbounds nuw %struct.FxuLit, ptr %29, i32 0, i32 5
  store ptr %26, ptr %30, align 8, !tbaa !76
  %31 = load ptr, ptr %5, align 8, !tbaa !70
  %32 = getelementptr inbounds nuw %struct.FxuListLit, ptr %31, i32 0, i32 1
  %33 = load ptr, ptr %32, align 8, !tbaa !73
  %34 = load ptr, ptr %4, align 8, !tbaa !69
  %35 = getelementptr inbounds nuw %struct.FxuLit, ptr %34, i32 0, i32 4
  store ptr %33, ptr %35, align 8, !tbaa !74
  %36 = load ptr, ptr %4, align 8, !tbaa !69
  %37 = load ptr, ptr %5, align 8, !tbaa !70
  %38 = getelementptr inbounds nuw %struct.FxuListLit, ptr %37, i32 0, i32 1
  store ptr %36, ptr %38, align 8, !tbaa !73
  br label %39

39:                                               ; preds = %23, %12
  %40 = load ptr, ptr %5, align 8, !tbaa !70
  %41 = getelementptr inbounds nuw %struct.FxuListLit, ptr %40, i32 0, i32 2
  %42 = load i32, ptr %41, align 8, !tbaa !77
  %43 = add nsw i32 %42, 1
  store i32 %43, ptr %41, align 8, !tbaa !77
  call void @llvm.lifetime.end.p0(i64 8, ptr %5) #3
  ret void
}